target datalayout = "e-m:e-p270:32:32-p271:32:32-p272:64:64-i64:64-i128:128-f80:128-n8:16:32:64-S128"
target triple = "x86_64-pc-linux-gnu"

%"class.icu_77::UnicodeString" = type { %"class.icu_77::Replaceable", %"union.icu_77::UnicodeString::StackBufferOrFields" }
%"class.icu_77::Replaceable" = type { %"class.icu_77::UObject" }
%"class.icu_77::UObject" = type { ptr }
%"union.icu_77::UnicodeString::StackBufferOrFields" = type { %struct.anon.0, [32 x i8] }
%struct.anon.0 = type { i16, i32, i32, ptr }
%"class.icu_77::StringEnumeration.base" = type <{ %"class.icu_77::UObject", %"class.icu_77::UnicodeString", [32 x i8], ptr, i32 }>
%"class.icu_77::LocalPointer.8" = type { %"class.icu_77::LocalPointerBase.9" }
%"class.icu_77::LocalPointerBase.9" = type { ptr }
%"class.icu_77::DTSkeletonEnumeration" = type { %"class.icu_77::StringEnumeration.base", i32, %"class.icu_77::LocalPointer.8" }
%"class.icu_77::UVector" = type { %"class.icu_77::UObject", i32, i32, ptr, ptr, ptr }

; Function Attrs: inlinehint mustprogress nounwind uwtable
define linkonce_odr noundef i32 @_ZNK6icu_777UVector4sizeEv(ptr noundef nonnull align 8 dereferenceable(40) %0) #2 comdat align 2 {
  %2 = alloca ptr, align 8
  store ptr %0, ptr %2, align 8, !tbaa !290
  %3 = load ptr, ptr %2, align 8
  %4 = getelementptr inbounds nuw %"class.icu_77::UVector", ptr %3, i32 0, i32 1
  %5 = load i32, ptr %4, align 8, !tbaa !301
  ret i32 %5
}

; Function Attrs: mustprogress nounwind uwtable
define linkonce_odr noundef ptr @_ZNK6icu_7716LocalPointerBaseINS_7UVectorEEptEv(ptr noundef nonnull align 8 dereferenceable(8) %0) #0 comdat align 2 {
  %2 = alloca ptr, align 8
  store ptr %0, ptr %2, align 8, !tbaa !295
  %3 = load ptr, ptr %2, align 8
  %4 = getelementptr inbounds nuw %"class.icu_77::LocalPointerBase.9", ptr %3, i32 0, i32 0
  %5 = load ptr, ptr %4, align 8, !tbaa !291
  ret ptr %5
}

; Function Attrs: mustprogress nounwind uwtable
define linkonce_odr noundef signext i8 @_ZNK6icu_7716LocalPointerBaseINS_7UVectorEE7isValidEv(ptr noundef nonnull align 8 dereferenceable(8) %0) #0 comdat align 2 {
  %2 = alloca ptr, align 8
  store ptr %0, ptr %2, align 8, !tbaa !295
  %3 = load ptr, ptr %2, align 8
  %4 = getelementptr inbounds nuw %"class.icu_77::LocalPointerBase.9", ptr %3, i32 0, i32 0
  %5 = load ptr, ptr %4, align 8, !tbaa !291
  %6 = icmp ne ptr %5, null
  %7 = zext i1 %6 to i8
  ret i8 %7
}

; Function Attrs: inlinehint mustprogress nounwind uwtable
define internal noundef signext i8 @_ZL9U_SUCCESS10UErrorCode(i32 noundef %0) #2 {
  %2 = alloca i32, align 4
  store i32 %0, ptr %2, align 4, !tbaa !15
  %3 = load i32, ptr %2, align 4, !tbaa !15
  %4 = icmp sle i32 %3, 0
  %5 = zext i1 %4 to i8
  ret i8 %5
}

; Function Attrs: mustprogress uwtable
define noundef ptr @_ZN6icu_7721DTSkeletonEnumeration5snextER10UErrorCode(ptr noundef nonnull align 8 dereferenceable(128) %0, ptr noundef nonnull align 4 dereferenceable(4) %1) unnamed_addr #1 align 2 {
  %3 = alloca ptr, align 8
  %4 = alloca ptr, align 8
  %5 = alloca ptr, align 8
  store ptr %0, ptr %4, align 8, !tbaa !25
  store ptr %1, ptr %5, align 8, !tbaa !22
  %6 = load ptr, ptr %4, align 8
  %7 = load ptr, ptr %5, align 8, !tbaa !22
  %8 = load i32, ptr %7, align 4, !tbaa !15
  %9 = call noundef signext i8 @_ZL9U_SUCCESS10UErrorCode(i32 noundef %8)
  %10 = icmp ne i8 %9, 0
  br i1 %10, label %11, label %29

11:                                               ; preds = %2
  %12 = getelementptr inbounds nuw %"class.icu_77::DTSkeletonEnumeration", ptr %6, i32 0, i32 2
  %13 = call noundef signext i8 @_ZNK6icu_7716LocalPointerBaseINS_7UVectorEE7isValidEv(ptr noundef nonnull align 8 dereferenceable(8) %12)
  %14 = icmp ne i8 %13, 0
  br i1 %14, label %15, label %29

15:                                               ; preds = %11
  %16 = getelementptr inbounds nuw %"class.icu_77::DTSkeletonEnumeration", ptr %6, i32 0, i32 1
  %17 = load i32, ptr %16, align 4, !tbaa !280
  %18 = getelementptr inbounds nuw %"class.icu_77::DTSkeletonEnumeration", ptr %6, i32 0, i32 2
  %19 = call noundef ptr @_ZNK6icu_7716LocalPointerBaseINS_7UVectorEEptEv(ptr noundef nonnull align 8 dereferenceable(8) %18)
  %20 = call noundef i32 @_ZNK6icu_777UVector4sizeEv(ptr noundef nonnull align 8 dereferenceable(40) %19)
  %21 = icmp slt i32 %17, %20
  br i1 %21, label %22, label %29

22:                                               ; preds = %15
  %23 = getelementptr inbounds nuw %"class.icu_77::DTSkeletonEnumeration", ptr %6, i32 0, i32 2
  %24 = call noundef ptr @_ZNK6icu_7716LocalPointerBaseINS_7UVectorEEptEv(ptr noundef nonnull align 8 dereferenceable(8) %23)
  %25 = getelementptr inbounds nuw %"class.icu_77::DTSkeletonEnumeration", ptr %6, i32 0, i32 1
  %26 = load i32, ptr %25, align 4, !tbaa !280
  %27 = add nsw i32 %26, 1
  store i32 %27, ptr %25, align 4, !tbaa !280
  %28 = call noundef ptr @_ZNK6icu_777UVector9elementAtEi(ptr noundef nonnull align 8 dereferenceable(40) %24, i32 noundef %26)
  store ptr %28, ptr %3, align 8
  br label %30

29:                                               ; preds = %15, %11, %2
  store ptr null, ptr %3, align 8
  br label %30

30:                                               ; preds = %29, %22
  %31 = load ptr, ptr %3, align 8
  ret ptr %31
}