; Function Attrs: mustprogress uwtable
define noundef ptr @_ZN6icu_7721DTSkeletonEnumeration5snextER10UErrorCode(ptr noundef nonnull align 8 captures(none) dereferenceable(128) %0, ptr noundef nonnull readonly align 4 captures(none) dereferenceable(4) %1) unnamed_addr #1 align 2 {
  %3 = load i32, ptr %1, align 4, !tbaa !13
  %4 = icmp sgt i32 %3, 0
  br i1 %4, label %17, label %5

5:                                                ; preds = %2
  %6 = getelementptr inbounds nuw i8, ptr %0, i64 120
  %7 = load ptr, ptr %6, align 8, !tbaa !176
  %.not = icmp eq ptr %7, null
  br i1 %.not, label %17, label %8

8:                                                ; preds = %5
  %9 = getelementptr inbounds nuw i8, ptr %0, i64 116
  %10 = load i32, ptr %9, align 4, !tbaa !182
  %11 = getelementptr inbounds nuw i8, ptr %7, i64 8
  %12 = load i32, ptr %11, align 8, !tbaa !189
  %13 = icmp slt i32 %10, %12
  br i1 %13, label %14, label %17

14:                                               ; preds = %8
  %15 = add nsw i32 %10, 1
  store i32 %15, ptr %9, align 4, !tbaa !182
  %16 = tail call noundef ptr @_ZNK6icu_777UVector9elementAtEi(ptr noundef nonnull align 8 dereferenceable(40) %7, i32 noundef %10)
  br label %17

17:                                               ; preds = %2, %5, %8, %14
  %.0 = phi ptr [ %16, %14 ], [ null, %8 ], [ null, %5 ], [ null, %2 ]
  ret ptr %.0
}